target datalayout = "e-m:e-p270:32:32-p271:32:32-p272:64:64-i64:64-i128:128-f80:128-n8:16:32:64-S128"
target triple = "x86_64-pc-linux-gnu"

%union.pthread_mutex_t = type { %struct.__pthread_mutex_s }
%struct.__pthread_mutex_s = type { i32, i32, i32, i32, i32, i16, i16, %struct.__pthread_internal_list }
%struct.__pthread_internal_list = type { ptr, ptr }
%struct.itemstats_t = type { i64, i64, i64, i64, i64, i64, i64, i64, i64, i64, i64, i64, i64, i64, i64, i64, i64, i64, i64, i64, i32 }
%struct._stritem = type { ptr, ptr, ptr, i32, i32, i32, i16, i16, i8, i8, [0 x %union.anon] }
%union.anon = type { i64 }
%struct.item_stats_automove = type { i64, i64, i32 }

@lru_locks = external global [256 x %union.pthread_mutex_t], align 16
@itemstats = internal global [256 x %struct.itemstats_t] zeroinitializer, align 16
@current_time = external global i32, align 4
@tails = internal global [256 x ptr] zeroinitializer, align 16

; Function Attrs: nounwind uwtable
define dso_local void @fill_item_stats_automove(ptr noundef %0) #0 {
  %2 = alloca ptr, align 8
  %3 = alloca i32, align 4
  %4 = alloca ptr, align 8
  %5 = alloca i32, align 4
  store ptr %0, ptr %2, align 8, !tbaa !33
  call void @llvm.lifetime.start.p0(i64 4, ptr %3) #9
  store i32 0, ptr %3, align 4, !tbaa !4
  br label %6

6:                                                ; preds = %120, %1
  %7 = load i32, ptr %3, align 4, !tbaa !4
  %8 = icmp slt i32 %7, 64
  br i1 %8, label %9, label %123

9:                                                ; preds = %6
  call void @llvm.lifetime.start.p0(i64 8, ptr %4) #9
  %10 = load ptr, ptr %2, align 8, !tbaa !33
  %11 = load i32, ptr %3, align 4, !tbaa !4
  %12 = sext i32 %11 to i64
  %13 = getelementptr inbounds %struct.item_stats_automove, ptr %10, i64 %12
  store ptr %13, ptr %4, align 8, !tbaa !33
  call void @llvm.lifetime.start.p0(i64 4, ptr %5) #9
  %14 = load i32, ptr %3, align 4, !tbaa !4
  %15 = or i32 %14, 0
  store i32 %15, ptr %5, align 4, !tbaa !4
  %16 = load i32, ptr %5, align 4, !tbaa !4
  %17 = sext i32 %16 to i64
  %18 = getelementptr inbounds [256 x %union.pthread_mutex_t], ptr @lru_locks, i64 0, i64 %17
  %19 = call i32 @pthread_mutex_lock(ptr noundef %18) #9
  %20 = load i32, ptr %5, align 4, !tbaa !4
  %21 = sext i32 %20 to i64
  %22 = getelementptr inbounds [256 x %struct.itemstats_t], ptr @itemstats, i64 0, i64 %21
  %23 = getelementptr inbounds nuw %struct.itemstats_t, ptr %22, i32 0, i32 3
  %24 = load i64, ptr %23, align 8, !tbaa !67
  %25 = load ptr, ptr %4, align 8, !tbaa !33
  %26 = getelementptr inbounds nuw %struct.item_stats_automove, ptr %25, i32 0, i32 1
  store i64 %24, ptr %26, align 8, !tbaa !84
  %27 = load i32, ptr %5, align 4, !tbaa !4
  %28 = sext i32 %27 to i64
  %29 = getelementptr inbounds [256 x %union.pthread_mutex_t], ptr @lru_locks, i64 0, i64 %28
  %30 = call i32 @pthread_mutex_unlock(ptr noundef %29) #9
  %31 = load i32, ptr %3, align 4, !tbaa !4
  %32 = or i32 %31, 128
  store i32 %32, ptr %5, align 4, !tbaa !4
  %33 = load i32, ptr %5, align 4, !tbaa !4
  %34 = sext i32 %33 to i64
  %35 = getelementptr inbounds [256 x %union.pthread_mutex_t], ptr @lru_locks, i64 0, i64 %34
  %36 = call i32 @pthread_mutex_lock(ptr noundef %35) #9
  %37 = load i32, ptr %5, align 4, !tbaa !4
  %38 = sext i32 %37 to i64
  %39 = getelementptr inbounds [256 x %struct.itemstats_t], ptr @itemstats, i64 0, i64 %38
  %40 = getelementptr inbounds nuw %struct.itemstats_t, ptr %39, i32 0, i32 0
  %41 = load i64, ptr %40, align 8, !tbaa !46
  %42 = load ptr, ptr %4, align 8, !tbaa !33
  %43 = getelementptr inbounds nuw %struct.item_stats_automove, ptr %42, i32 0, i32 0
  store i64 %41, ptr %43, align 8, !tbaa !86
  %44 = load i32, ptr %5, align 4, !tbaa !4
  %45 = sext i32 %44 to i64
  %46 = getelementptr inbounds [256 x ptr], ptr @tails, i64 0, i64 %45
  %47 = load ptr, ptr %46, align 8, !tbaa !16
  %48 = icmp ne ptr %47, null
  br i1 %48, label %52, label %49

49:                                               ; preds = %9
  %50 = load ptr, ptr %4, align 8, !tbaa !33
  %51 = getelementptr inbounds nuw %struct.item_stats_automove, ptr %50, i32 0, i32 2
  store i32 0, ptr %51, align 8, !tbaa !87
  br label %115

52:                                               ; preds = %9
  %53 = load i32, ptr %5, align 4, !tbaa !4
  %54 = sext i32 %53 to i64
  %55 = getelementptr inbounds [256 x ptr], ptr @tails, i64 0, i64 %54
  %56 = load ptr, ptr %55, align 8, !tbaa !16
  %57 = getelementptr inbounds nuw %struct._stritem, ptr %56, i32 0, i32 5
  %58 = load i32, ptr %57, align 8, !tbaa !4
  %59 = icmp eq i32 %58, 0
  br i1 %59, label %60, label %103

60:                                               ; preds = %52
  %61 = load i32, ptr %5, align 4, !tbaa !4
  %62 = sext i32 %61 to i64
  %63 = getelementptr inbounds [256 x ptr], ptr @tails, i64 0, i64 %62
  %64 = load ptr, ptr %63, align 8, !tbaa !16
  %65 = getelementptr inbounds nuw %struct._stritem, ptr %64, i32 0, i32 9
  %66 = load i8, ptr %65, align 1, !tbaa !30
  %67 = zext i8 %66 to i32
  %68 = icmp eq i32 %67, 0
  br i1 %68, label %69, label %103

69:                                               ; preds = %60
  %70 = load i32, ptr %5, align 4, !tbaa !4
  %71 = sext i32 %70 to i64
  %72 = getelementptr inbounds [256 x ptr], ptr @tails, i64 0, i64 %71
  %73 = load ptr, ptr %72, align 8, !tbaa !16
  %74 = getelementptr inbounds nuw %struct._stritem, ptr %73, i32 0, i32 7
  %75 = load i16, ptr %74, align 2, !tbaa !34
  %76 = zext i16 %75 to i32
  %77 = icmp eq i32 %76, 1
  br i1 %77, label %78, label %103

78:                                               ; preds = %69
  %79 = load i32, ptr %5, align 4, !tbaa !4
  %80 = sext i32 %79 to i64
  %81 = getelementptr inbounds [256 x ptr], ptr @tails, i64 0, i64 %80
  %82 = load ptr, ptr %81, align 8, !tbaa !16
  %83 = getelementptr inbounds nuw %struct._stritem, ptr %82, i32 0, i32 1
  %84 = load ptr, ptr %83, align 8, !tbaa !16
  %85 = icmp ne ptr %84, null
  br i1 %85, label %86, label %99

86:                                               ; preds = %78
  %87 = load volatile i32, ptr @current_time, align 4, !tbaa !4
  %88 = load i32, ptr %5, align 4, !tbaa !4
  %89 = sext i32 %88 to i64
  %90 = getelementptr inbounds [256 x ptr], ptr @tails, i64 0, i64 %89
  %91 = load ptr, ptr %90, align 8, !tbaa !16
  %92 = getelementptr inbounds nuw %struct._stritem, ptr %91, i32 0, i32 1
  %93 = load ptr, ptr %92, align 8, !tbaa !16
  %94 = getelementptr inbounds nuw %struct._stritem, ptr %93, i32 0, i32 3
  %95 = load i32, ptr %94, align 8, !tbaa !4
  %96 = sub i32 %87, %95
  %97 = load ptr, ptr %4, align 8, !tbaa !33
  %98 = getelementptr inbounds nuw %struct.item_stats_automove, ptr %97, i32 0, i32 2
  store i32 %96, ptr %98, align 8, !tbaa !87
  br label %102

99:                                               ; preds = %78
  %100 = load ptr, ptr %4, align 8, !tbaa !33
  %101 = getelementptr inbounds nuw %struct.item_stats_automove, ptr %100, i32 0, i32 2
  store i32 0, ptr %101, align 8, !tbaa !87
  br label %102

102:                                              ; preds = %99, %86
  br label %114

103:                                              ; preds = %69, %60, %52
  %104 = load volatile i32, ptr @current_time, align 4, !tbaa !4
  %105 = load i32, ptr %5, align 4, !tbaa !4
  %106 = sext i32 %105 to i64
  %107 = getelementptr inbounds [256 x ptr], ptr @tails, i64 0, i64 %106
  %108 = load ptr, ptr %107, align 8, !tbaa !16
  %109 = getelementptr inbounds nuw %struct._stritem, ptr %108, i32 0, i32 3
  %110 = load i32, ptr %109, align 8, !tbaa !4
  %111 = sub i32 %104, %110
  %112 = load ptr, ptr %4, align 8, !tbaa !33
  %113 = getelementptr inbounds nuw %struct.item_stats_automove, ptr %112, i32 0, i32 2
  store i32 %111, ptr %113, align 8, !tbaa !87
  br label %114

114:                                              ; preds = %103, %102
  br label %115

115:                                              ; preds = %114, %49
  %116 = load i32, ptr %5, align 4, !tbaa !4
  %117 = sext i32 %116 to i64
  %118 = getelementptr inbounds [256 x %union.pthread_mutex_t], ptr @lru_locks, i64 0, i64 %117
  %119 = call i32 @pthread_mutex_unlock(ptr noundef %118) #9
  call void @llvm.lifetime.end.p0(i64 4, ptr %5) #9
  call void @llvm.lifetime.end.p0(i64 8, ptr %4) #9
  br label %120

120:                                              ; preds = %115
  %121 = load i32, ptr %3, align 4, !tbaa !4
  %122 = add nsw i32 %121, 1
  store i32 %122, ptr %3, align 4, !tbaa !4
  br label %6, !llvm.loop !88

123:                                              ; preds = %6
  call void @llvm.lifetime.end.p0(i64 4, ptr %3) #9
  ret void
}