; Function Attrs: nounwind uwtable
define dso_local void @fill_item_stats_automove(ptr noundef writeonly captures(none) %0) local_unnamed_addr #0 {
  br label %2

2:                                                ; preds = %1, %36
  %indvars.iv = phi i64 [ 0, %1 ], [ %indvars.iv.next, %36 ]
  %3 = getelementptr inbounds nuw %struct.item_stats_automove, ptr %0, i64 %indvars.iv
  %4 = getelementptr inbounds nuw [256 x %union.pthread_mutex_t], ptr @lru_locks, i64 0, i64 %indvars.iv
  %5 = tail call i32 @pthread_mutex_lock(ptr noundef nonnull %4) #19
  %6 = getelementptr inbounds nuw [256 x %struct.itemstats_t], ptr @itemstats, i64 0, i64 %indvars.iv, i32 3
  %7 = load i64, ptr %6, align 8, !tbaa !63
  %8 = getelementptr inbounds nuw i8, ptr %3, i64 8
  store i64 %7, ptr %8, align 8, !tbaa !77
  %9 = tail call i32 @pthread_mutex_unlock(ptr noundef nonnull %4) #19
  %10 = or disjoint i64 %indvars.iv, 128
  %11 = getelementptr inbounds nuw [256 x %union.pthread_mutex_t], ptr @lru_locks, i64 0, i64 %10
  %12 = tail call i32 @pthread_mutex_lock(ptr noundef nonnull %11) #19
  %13 = getelementptr inbounds nuw [256 x %struct.itemstats_t], ptr @itemstats, i64 0, i64 %10
  %14 = load i64, ptr %13, align 8, !tbaa !44
  store i64 %14, ptr %3, align 8, !tbaa !79
  %15 = getelementptr inbounds nuw [256 x ptr], ptr @tails, i64 0, i64 %10
  %16 = load ptr, ptr %15, align 8, !tbaa !28
  %.not = icmp eq ptr %16, null
  br i1 %.not, label %36, label %17

17:                                               ; preds = %2
  %18 = getelementptr inbounds nuw i8, ptr %16, i64 32
  %19 = load i32, ptr %18, align 8, !tbaa !22
  %20 = icmp eq i32 %19, 0
  br i1 %20, label %21, label %.sink.split

21:                                               ; preds = %17
  %22 = getelementptr inbounds nuw i8, ptr %16, i64 41
  %23 = load i8, ptr %22, align 1, !tbaa !30
  %24 = icmp eq i8 %23, 0
  br i1 %24, label %25, label %.sink.split

25:                                               ; preds = %21
  %26 = getelementptr inbounds nuw i8, ptr %16, i64 38
  %27 = load i16, ptr %26, align 2, !tbaa !31
  %28 = icmp eq i16 %27, 1
  br i1 %28, label %29, label %.sink.split

29:                                               ; preds = %25
  %30 = getelementptr inbounds nuw i8, ptr %16, i64 8
  %31 = load ptr, ptr %30, align 8, !tbaa !28
  %.not25 = icmp eq ptr %31, null
  br i1 %.not25, label %36, label %.sink.split

.sink.split:                                      ; preds = %17, %21, %25, %29
  %.sink32 = phi ptr [ %31, %29 ], [ %16, %25 ], [ %16, %21 ], [ %16, %17 ]
  %32 = load volatile i32, ptr @current_time, align 4, !tbaa !22
  %33 = getelementptr inbounds nuw i8, ptr %.sink32, i64 24
  %34 = load i32, ptr %33, align 8, !tbaa !22
  %35 = sub i32 %32, %34
  br label %36

36:                                               ; preds = %.sink.split, %29, %2
  %.sink = phi i32 [ 0, %2 ], [ 0, %29 ], [ %35, %.sink.split ]
  %37 = getelementptr inbounds nuw i8, ptr %3, i64 16
  store i32 %.sink, ptr %37, align 8, !tbaa !80
  %38 = tail call i32 @pthread_mutex_unlock(ptr noundef nonnull %11) #19
  %indvars.iv.next = add nuw nsw i64 %indvars.iv, 1
  %exitcond.not = icmp eq i64 %indvars.iv.next, 64
  br i1 %exitcond.not, label %39, label %2, !llvm.loop !81

39:                                               ; preds = %36
  ret void
}